; Function Attrs: mustprogress uwtable
define void @_ZN2cvdvERKNS_7MatExprEd(ptr dead_on_unwind noalias writable sret(%"class.cv::MatExpr") align 8 %0, ptr noundef nonnull align 8 dereferenceable(352) %1, double noundef %2) local_unnamed_addr #8 personality ptr @__gxx_personality_v0 {
  store ptr null, ptr %0, align 8
  %4 = getelementptr inbounds i8, ptr %0, i64 8
  store i32 0, ptr %4, align 8
  %5 = getelementptr inbounds i8, ptr %0, i64 16
  tail call void @_ZN2cv3MatC1Ev(ptr noundef nonnull align 8 dereferenceable(96) %5) #21
  %6 = getelementptr inbounds i8, ptr %0, i64 112
  tail call void @_ZN2cv3MatC1Ev(ptr noundef nonnull align 8 dereferenceable(96) %6) #21
  %7 = getelementptr inbounds i8, ptr %0, i64 208
  tail call void @_ZN2cv3MatC1Ev(ptr noundef nonnull align 8 dereferenceable(96) %7) #21
  %8 = getelementptr inbounds i8, ptr %0, i64 304
  tail call void @llvm.memset.p0.i64(ptr noundef nonnull align 8 dereferenceable(48) %8, i8 0, i64 48, i1 false)
  %9 = load ptr, ptr %1, align 8
  %10 = fdiv double 1.000000e+00, %2
  %11 = load ptr, ptr %9, align 8
  %12 = getelementptr inbounds i8, ptr %11, i64 144
  %13 = load ptr, ptr %12, align 8
  invoke void %13(ptr noundef nonnull align 8 dereferenceable(8) %9, ptr noundef nonnull align 8 dereferenceable(352) %1, double noundef %10, ptr noundef nonnull align 8 dereferenceable(352) %0)
          to label %16 unwind label %14

14:                                               ; preds = %3
  %15 = landingpad { ptr, i32 }
          cleanup
  tail call void @_ZN2cv7MatExprD2Ev(ptr noundef nonnull align 8 dereferenceable(352) %0) #21
  resume { ptr, i32 } %15

16:                                               ; preds = %3
  ret void
}